target datalayout = "e-m:e-p270:32:32-p271:32:32-p272:64:64-i64:64-i128:128-f80:128-n8:16:32:64-S128"
target triple = "x86_64-pc-linux-gnu"

%"struct.g2o::HyperGraph::HyperGraphElement" = type { ptr }
%"class.g2o::HyperGraph::DataContainer" = type { ptr, ptr }
%"class.g2o::OptimizableGraph::Edge" = type { %"class.g2o::HyperGraph::Edge.base", %"class.g2o::HyperGraph::DataContainer", i32, i32, ptr, i64, %"class.std::vector.9", %"class.std::vector.14", %"class.std::vector.19", %"class.std::vector.9" }
%"class.g2o::HyperGraph::Edge.base" = type <{ %"struct.g2o::HyperGraph::HyperGraphElement", %"class.std::vector", i32 }>
%"class.std::vector" = type { %"struct.std::_Vector_base" }
%"struct.std::_Vector_base" = type { %"struct.std::_Vector_base<g2o::HyperGraph::Vertex *, std::allocator<g2o::HyperGraph::Vertex *>>::_Vector_impl" }
%"struct.std::_Vector_base<g2o::HyperGraph::Vertex *, std::allocator<g2o::HyperGraph::Vertex *>>::_Vector_impl" = type { %"struct.std::_Vector_base<g2o::HyperGraph::Vertex *, std::allocator<g2o::HyperGraph::Vertex *>>::_Vector_impl_data" }
%"struct.std::_Vector_base<g2o::HyperGraph::Vertex *, std::allocator<g2o::HyperGraph::Vertex *>>::_Vector_impl_data" = type { ptr, ptr, ptr }
%"class.std::vector.14" = type { %"struct.std::_Vector_base.15" }
%"struct.std::_Vector_base.15" = type { %"struct.std::_Vector_base<std::__cxx11::basic_string<char>, std::allocator<std::__cxx11::basic_string<char>>>::_Vector_impl" }
%"struct.std::_Vector_base<std::__cxx11::basic_string<char>, std::allocator<std::__cxx11::basic_string<char>>>::_Vector_impl" = type { %"struct.std::_Vector_base<std::__cxx11::basic_string<char>, std::allocator<std::__cxx11::basic_string<char>>>::_Vector_impl_data" }
%"struct.std::_Vector_base<std::__cxx11::basic_string<char>, std::allocator<std::__cxx11::basic_string<char>>>::_Vector_impl_data" = type { ptr, ptr, ptr }
%"class.std::vector.19" = type { %"struct.std::_Vector_base.20" }
%"struct.std::_Vector_base.20" = type { %"struct.std::_Vector_base<g2o::Parameter **, std::allocator<g2o::Parameter **>>::_Vector_impl" }
%"struct.std::_Vector_base<g2o::Parameter **, std::allocator<g2o::Parameter **>>::_Vector_impl" = type { %"struct.std::_Vector_base<g2o::Parameter **, std::allocator<g2o::Parameter **>>::_Vector_impl_data" }
%"struct.std::_Vector_base<g2o::Parameter **, std::allocator<g2o::Parameter **>>::_Vector_impl_data" = type { ptr, ptr, ptr }
%"class.std::vector.9" = type { %"struct.std::_Vector_base.10" }
%"struct.std::_Vector_base.10" = type { %"struct.std::_Vector_base<int, std::allocator<int>>::_Vector_impl" }
%"struct.std::_Vector_base<int, std::allocator<int>>::_Vector_impl" = type { %"struct.std::_Vector_base<int, std::allocator<int>>::_Vector_impl_data" }
%"struct.std::_Vector_base<int, std::allocator<int>>::_Vector_impl_data" = type { ptr, ptr, ptr }

; Function Attrs: mustprogress nounwind uwtable
define linkonce_odr void @_ZN3g2o7releaseINS_12RobustKernelEEEvPT_(ptr noundef %0) #4 comdat {
  %2 = alloca ptr, align 8
  store ptr %0, ptr %2, align 8, !tbaa !90
  %3 = load ptr, ptr %2, align 8, !tbaa !90
  %4 = icmp eq ptr %3, null
  br i1 %4, label %9, label %5

5:                                                ; preds = %1
  %6 = load ptr, ptr %3, align 8, !tbaa !16
  %7 = getelementptr inbounds ptr, ptr %6, i64 1
  %8 = load ptr, ptr %7, align 8
  call void %8(ptr noundef nonnull align 8 dereferenceable(16) %3) #3
  br label %9

9:                                                ; preds = %5, %1
  ret void
}

; Function Attrs: mustprogress uwtable
define void @_ZN3g2o16OptimizableGraph4Edge15setRobustKernelEPNS_12RobustKernelE(ptr noundef nonnull align 8 dereferenceable(176) %0, ptr noundef %1) #6 align 2 {
  %3 = alloca ptr, align 8
  %4 = alloca ptr, align 8
  store ptr %0, ptr %3, align 8, !tbaa !55
  store ptr %1, ptr %4, align 8, !tbaa !90
  %5 = load ptr, ptr %3, align 8
  %6 = getelementptr inbounds nuw %"class.g2o::OptimizableGraph::Edge", ptr %5, i32 0, i32 4
  %7 = load ptr, ptr %6, align 8, !tbaa !83
  %8 = icmp ne ptr %7, null
  br i1 %8, label %9, label %12

9:                                                ; preds = %2
  %10 = getelementptr inbounds nuw %"class.g2o::OptimizableGraph::Edge", ptr %5, i32 0, i32 4
  %11 = load ptr, ptr %10, align 8, !tbaa !83
  call void @_ZN3g2o7releaseINS_12RobustKernelEEEvPT_(ptr noundef %11)
  br label %12

12:                                               ; preds = %9, %2
  %13 = load ptr, ptr %4, align 8, !tbaa !90
  %14 = getelementptr inbounds nuw %"class.g2o::OptimizableGraph::Edge", ptr %5, i32 0, i32 4
  store ptr %13, ptr %14, align 8, !tbaa !83
  ret void
}