; Function Attrs: mustprogress uwtable
define void @_ZN3g2o16OptimizableGraph4Edge15setRobustKernelEPNS_12RobustKernelE(ptr noundef nonnull align 8 captures(none) dereferenceable(176) %0, ptr noundef %1) local_unnamed_addr #4 align 2 {
  %3 = getelementptr inbounds nuw i8, ptr %0, i64 64
  %4 = load ptr, ptr %3, align 8, !tbaa !61
  %.not = icmp eq ptr %4, null
  br i1 %.not, label %8, label %_ZN3g2o7releaseINS_12RobustKernelEEEvPT_.exit

_ZN3g2o7releaseINS_12RobustKernelEEEvPT_.exit:    ; preds = %2
  %5 = load ptr, ptr %4, align 8, !tbaa !9
  %6 = getelementptr inbounds nuw i8, ptr %5, i64 8
  %7 = load ptr, ptr %6, align 8
  tail call void %7(ptr noundef nonnull align 8 dereferenceable(16) %4) #45
  br label %8

8:                                                ; preds = %_ZN3g2o7releaseINS_12RobustKernelEEEvPT_.exit, %2
  store ptr %1, ptr %3, align 8, !tbaa !61
  ret void
}